; Function Attrs: mustprogress nounwind uwtable
define hidden void @_ZN14MacroAssembler16set_narrow_klassE7AddressP5Klass(ptr noundef nonnull align 8 dereferenceable(40) %0, ptr noundef %1, ptr noundef %2) local_unnamed_addr #0 align 2 {
  %4 = alloca %class.RelocationHolder, align 8
  %5 = alloca %class.Address, align 8
  %6 = getelementptr inbounds i8, ptr %0, i64 16
  %7 = load ptr, ptr %6, align 8
  %8 = getelementptr inbounds i8, ptr %7, i64 40
  %9 = tail call noundef i32 @_ZN13ValueRecorderIP8MetadataE16maybe_find_indexES1_(ptr noundef nonnull align 8 dereferenceable(33) %8, ptr noundef %2) #18
  %10 = icmp slt i32 %9, 0
  br i1 %10, label %11, label %_ZN11OopRecorder10find_indexEP8Metadata.exit

11:                                               ; preds = %3
  %12 = tail call noundef i32 @_ZN13ValueRecorderIP8MetadataE10add_handleES1_b(ptr noundef nonnull align 8 dereferenceable(33) %8, ptr noundef %2, i1 noundef zeroext true) #18
  br label %_ZN11OopRecorder10find_indexEP8Metadata.exit

_ZN11OopRecorder10find_indexEP8Metadata.exit:     ; preds = %3, %11
  %.0.i.i = phi i32 [ %12, %11 ], [ %9, %3 ]
  %13 = getelementptr inbounds i8, ptr %4, i64 8
  store ptr null, ptr %13, align 8, !alias.scope !372
  %14 = getelementptr inbounds i8, ptr %4, i64 16
  store i32 12, ptr %14, align 8, !alias.scope !372
  store ptr getelementptr inbounds inrange(-16, 72) (i8, ptr @_ZTV19metadata_Relocation, i64 16), ptr %4, align 8, !alias.scope !372
  %15 = getelementptr inbounds i8, ptr %4, i64 20
  store i32 %.0.i.i, ptr %15, align 4, !alias.scope !372
  call void @llvm.memcpy.p0.p0.i64(ptr noundef nonnull align 8 dereferenceable(21) %5, ptr noundef nonnull align 8 dereferenceable(21) %1, i64 21, i1 false)
  %16 = getelementptr inbounds i8, ptr %5, i64 24
  %17 = getelementptr inbounds i8, ptr %1, i64 24
  %18 = load ptr, ptr %17, align 8
  %19 = getelementptr inbounds i8, ptr %18, i64 16
  %20 = load ptr, ptr %19, align 8
  call void %20(ptr noundef nonnull align 8 dereferenceable(20) %17, ptr noundef nonnull align 8 dereferenceable(40) %16) #18
  %21 = icmp eq ptr %2, null
  %22 = load ptr, ptr @_ZN23CompressedKlassPointers5_baseE, align 8
  %23 = load i32, ptr @_ZN23CompressedKlassPointers6_shiftE, align 4
  %24 = ptrtoint ptr %2 to i64
  %25 = ptrtoint ptr %22 to i64
  %26 = sub i64 %24, %25
  %27 = zext nneg i32 %23 to i64
  %28 = lshr i64 %26, %27
  %29 = trunc i64 %28 to i32
  %30 = select i1 %21, i32 0, i32 %29
  call void @_ZN9Assembler14mov_narrow_oopE7AddressiRK16RelocationHolder(ptr noundef nonnull align 8 dereferenceable(40) %0, ptr noundef nonnull %5, i32 noundef %30, ptr noundef nonnull align 8 dereferenceable(40) %4) #18
  ret void
}